
i2c_project.elf:     file format elf32-avr

Sections:
Idx Name          Size      VMA       LMA       File off  Algn
  0 .data         00000002  00800100  00000286  0000031a  2**0
                  CONTENTS, ALLOC, LOAD, DATA
  1 .text         00000286  00000000  00000000  00000094  2**1
                  CONTENTS, ALLOC, LOAD, READONLY, CODE
  2 .bss          00000001  00800102  00800102  0000031c  2**0
                  ALLOC
  3 .comment      00000030  00000000  00000000  0000031c  2**0
                  CONTENTS, READONLY
  4 .note.gnu.avr.deviceinfo 00000040  00000000  00000000  0000034c  2**2
                  CONTENTS, READONLY
  5 .debug_aranges 000000d0  00000000  00000000  0000038c  2**0
                  CONTENTS, READONLY, DEBUGGING
  6 .debug_info   00000e42  00000000  00000000  0000045c  2**0
                  CONTENTS, READONLY, DEBUGGING
  7 .debug_abbrev 000009d5  00000000  00000000  0000129e  2**0
                  CONTENTS, READONLY, DEBUGGING
  8 .debug_line   00000707  00000000  00000000  00001c73  2**0
                  CONTENTS, READONLY, DEBUGGING
  9 .debug_frame  0000018c  00000000  00000000  0000237c  2**2
                  CONTENTS, READONLY, DEBUGGING
 10 .debug_str    0000052f  00000000  00000000  00002508  2**0
                  CONTENTS, READONLY, DEBUGGING
 11 .debug_loc    00000370  00000000  00000000  00002a37  2**0
                  CONTENTS, READONLY, DEBUGGING
 12 .debug_ranges 000000a0  00000000  00000000  00002da7  2**0
                  CONTENTS, READONLY, DEBUGGING

Disassembly of section .text:

00000000 <__vectors>:
   0:	45 c0       	rjmp	.+138    	; 0x8c <__ctors_end>
   2:	00 00       	nop
   4:	60 c0       	rjmp	.+192    	; 0xc6 <__bad_interrupt>
   6:	00 00       	nop
   8:	5e c0       	rjmp	.+188    	; 0xc6 <__bad_interrupt>
   a:	00 00       	nop
   c:	5c c0       	rjmp	.+184    	; 0xc6 <__bad_interrupt>
   e:	00 00       	nop
  10:	5a c0       	rjmp	.+180    	; 0xc6 <__bad_interrupt>
  12:	00 00       	nop
  14:	58 c0       	rjmp	.+176    	; 0xc6 <__bad_interrupt>
  16:	00 00       	nop
  18:	56 c0       	rjmp	.+172    	; 0xc6 <__bad_interrupt>
  1a:	00 00       	nop
  1c:	54 c0       	rjmp	.+168    	; 0xc6 <__bad_interrupt>
  1e:	00 00       	nop
  20:	52 c0       	rjmp	.+164    	; 0xc6 <__bad_interrupt>
  22:	00 00       	nop
  24:	50 c0       	rjmp	.+160    	; 0xc6 <__bad_interrupt>
  26:	00 00       	nop
  28:	4e c0       	rjmp	.+156    	; 0xc6 <__bad_interrupt>
  2a:	00 00       	nop
  2c:	4c c0       	rjmp	.+152    	; 0xc6 <__bad_interrupt>
  2e:	00 00       	nop
  30:	4a c0       	rjmp	.+148    	; 0xc6 <__bad_interrupt>
  32:	00 00       	nop
  34:	48 c0       	rjmp	.+144    	; 0xc6 <__bad_interrupt>
  36:	00 00       	nop
  38:	46 c0       	rjmp	.+140    	; 0xc6 <__bad_interrupt>
  3a:	00 00       	nop
  3c:	44 c0       	rjmp	.+136    	; 0xc6 <__bad_interrupt>
  3e:	00 00       	nop
  40:	42 c0       	rjmp	.+132    	; 0xc6 <__bad_interrupt>
  42:	00 00       	nop
  44:	40 c0       	rjmp	.+128    	; 0xc6 <__bad_interrupt>
  46:	00 00       	nop
  48:	3e c0       	rjmp	.+124    	; 0xc6 <__bad_interrupt>
  4a:	00 00       	nop
  4c:	3c c0       	rjmp	.+120    	; 0xc6 <__bad_interrupt>
  4e:	00 00       	nop
  50:	3a c0       	rjmp	.+116    	; 0xc6 <__bad_interrupt>
  52:	00 00       	nop
  54:	38 c0       	rjmp	.+112    	; 0xc6 <__bad_interrupt>
  56:	00 00       	nop
  58:	36 c0       	rjmp	.+108    	; 0xc6 <__bad_interrupt>
  5a:	00 00       	nop
  5c:	34 c0       	rjmp	.+104    	; 0xc6 <__bad_interrupt>
  5e:	00 00       	nop
  60:	32 c0       	rjmp	.+100    	; 0xc6 <__bad_interrupt>
  62:	00 00       	nop
  64:	30 c0       	rjmp	.+96     	; 0xc6 <__bad_interrupt>
  66:	00 00       	nop
  68:	2e c0       	rjmp	.+92     	; 0xc6 <__bad_interrupt>
  6a:	00 00       	nop
  6c:	2c c0       	rjmp	.+88     	; 0xc6 <__bad_interrupt>
  6e:	00 00       	nop
  70:	2a c0       	rjmp	.+84     	; 0xc6 <__bad_interrupt>
  72:	00 00       	nop
  74:	28 c0       	rjmp	.+80     	; 0xc6 <__bad_interrupt>
  76:	00 00       	nop
  78:	26 c0       	rjmp	.+76     	; 0xc6 <__bad_interrupt>
  7a:	00 00       	nop
  7c:	24 c0       	rjmp	.+72     	; 0xc6 <__bad_interrupt>
  7e:	00 00       	nop
  80:	22 c0       	rjmp	.+68     	; 0xc6 <__bad_interrupt>
  82:	00 00       	nop
  84:	20 c0       	rjmp	.+64     	; 0xc6 <__bad_interrupt>
  86:	00 00       	nop
  88:	1e c0       	rjmp	.+60     	; 0xc6 <__bad_interrupt>
	...

0000008c <__ctors_end>:
  8c:	11 24       	eor	r1, r1
  8e:	1f be       	out	0x3f, r1	; 63
  90:	cf ef       	ldi	r28, 0xFF	; 255
  92:	d0 e1       	ldi	r29, 0x10	; 16
  94:	de bf       	out	0x3e, r29	; 62
  96:	cd bf       	out	0x3d, r28	; 61

00000098 <__do_copy_data>:
  98:	11 e0       	ldi	r17, 0x01	; 1
  9a:	a0 e0       	ldi	r26, 0x00	; 0
  9c:	b1 e0       	ldi	r27, 0x01	; 1
  9e:	e6 e8       	ldi	r30, 0x86	; 134
  a0:	f2 e0       	ldi	r31, 0x02	; 2
  a2:	00 e0       	ldi	r16, 0x00	; 0
  a4:	0b bf       	out	0x3b, r16	; 59
  a6:	02 c0       	rjmp	.+4      	; 0xac <__do_copy_data+0x14>
  a8:	07 90       	elpm	r0, Z+
  aa:	0d 92       	st	X+, r0
  ac:	a2 30       	cpi	r26, 0x02	; 2
  ae:	b1 07       	cpc	r27, r17
  b0:	d9 f7       	brne	.-10     	; 0xa8 <__do_copy_data+0x10>

000000b2 <__do_clear_bss>:
  b2:	21 e0       	ldi	r18, 0x01	; 1
  b4:	a2 e0       	ldi	r26, 0x02	; 2
  b6:	b1 e0       	ldi	r27, 0x01	; 1
  b8:	01 c0       	rjmp	.+2      	; 0xbc <.do_clear_bss_start>

000000ba <.do_clear_bss_loop>:
  ba:	1d 92       	st	X+, r1

000000bc <.do_clear_bss_start>:
  bc:	a3 30       	cpi	r26, 0x03	; 3
  be:	b2 07       	cpc	r27, r18
  c0:	e1 f7       	brne	.-8      	; 0xba <.do_clear_bss_loop>
  c2:	b6 d0       	rcall	.+364    	; 0x230 <main>
  c4:	de c0       	rjmp	.+444    	; 0x282 <_exit>

000000c6 <__bad_interrupt>:
  c6:	9c cf       	rjmp	.-200    	; 0x0 <__vectors>

000000c8 <i2c_start>:
		temp_data = page[data_index];
		write_data(temp_data);
		
		response = receive_response();
	}
}
  c8:	82 b3       	in	r24, 0x12	; 18
  ca:	82 60       	ori	r24, 0x02	; 2
  cc:	82 bb       	out	0x12, r24	; 18
  ce:	82 b3       	in	r24, 0x12	; 18
  d0:	81 60       	ori	r24, 0x01	; 1
  d2:	82 bb       	out	0x12, r24	; 18
  d4:	82 b3       	in	r24, 0x12	; 18
  d6:	8d 7f       	andi	r24, 0xFD	; 253
  d8:	82 bb       	out	0x12, r24	; 18
  da:	82 b3       	in	r24, 0x12	; 18
  dc:	8e 7f       	andi	r24, 0xFE	; 254
  de:	82 bb       	out	0x12, r24	; 18
  e0:	08 95       	ret

000000e2 <i2c_stop>:
  e2:	82 b3       	in	r24, 0x12	; 18
  e4:	8d 7f       	andi	r24, 0xFD	; 253
  e6:	82 bb       	out	0x12, r24	; 18
  e8:	82 b3       	in	r24, 0x12	; 18
  ea:	81 60       	ori	r24, 0x01	; 1
  ec:	82 bb       	out	0x12, r24	; 18
  ee:	82 b3       	in	r24, 0x12	; 18
  f0:	82 60       	ori	r24, 0x02	; 2
  f2:	82 bb       	out	0x12, r24	; 18
  f4:	82 b3       	in	r24, 0x12	; 18
  f6:	8e 7f       	andi	r24, 0xFE	; 254
  f8:	82 bb       	out	0x12, r24	; 18
  fa:	08 95       	ret

000000fc <write_data>:
  fc:	cf 93       	push	r28
  fe:	df 93       	push	r29
 100:	d8 2f       	mov	r29, r24
 102:	81 b3       	in	r24, 0x11	; 17
 104:	82 60       	ori	r24, 0x02	; 2
 106:	81 bb       	out	0x11, r24	; 17
 108:	c0 e0       	ldi	r28, 0x00	; 0
 10a:	19 c0       	rjmp	.+50     	; 0x13e <write_data+0x42>
 10c:	88 d0       	rcall	.+272    	; 0x21e <loading_led>
 10e:	8d 2f       	mov	r24, r29
 110:	90 e0       	ldi	r25, 0x00	; 0
 112:	0c 2e       	mov	r0, r28
 114:	02 c0       	rjmp	.+4      	; 0x11a <write_data+0x1e>
 116:	88 0f       	add	r24, r24
 118:	99 1f       	adc	r25, r25
 11a:	0a 94       	dec	r0
 11c:	e2 f7       	brpl	.-8      	; 0x116 <write_data+0x1a>
 11e:	87 ff       	sbrs	r24, 7
 120:	04 c0       	rjmp	.+8      	; 0x12a <write_data+0x2e>
 122:	82 b3       	in	r24, 0x12	; 18
 124:	80 62       	ori	r24, 0x20	; 32
 126:	82 bb       	out	0x12, r24	; 18
 128:	03 c0       	rjmp	.+6      	; 0x130 <write_data+0x34>
 12a:	82 b3       	in	r24, 0x12	; 18
 12c:	8d 7f       	andi	r24, 0xFD	; 253
 12e:	82 bb       	out	0x12, r24	; 18
 130:	82 b3       	in	r24, 0x12	; 18
 132:	81 60       	ori	r24, 0x01	; 1
 134:	82 bb       	out	0x12, r24	; 18
 136:	82 b3       	in	r24, 0x12	; 18
 138:	8e 7f       	andi	r24, 0xFE	; 254
 13a:	82 bb       	out	0x12, r24	; 18
 13c:	cf 5f       	subi	r28, 0xFF	; 255
 13e:	c8 30       	cpi	r28, 0x08	; 8
 140:	28 f3       	brcs	.-54     	; 0x10c <write_data+0x10>
 142:	df 91       	pop	r29
 144:	cf 91       	pop	r28
 146:	08 95       	ret

00000148 <receive_response>:
 148:	cf 93       	push	r28
 14a:	81 b3       	in	r24, 0x11	; 17
 14c:	8d 7f       	andi	r24, 0xFD	; 253
 14e:	81 bb       	out	0x11, r24	; 17
 150:	82 b3       	in	r24, 0x12	; 18
 152:	81 60       	ori	r24, 0x01	; 1
 154:	82 bb       	out	0x12, r24	; 18
 156:	80 e0       	ldi	r24, 0x00	; 0
 158:	0b c0       	rjmp	.+22     	; 0x170 <receive_response+0x28>
 15a:	90 b3       	in	r25, 0x10	; 16
 15c:	c9 2f       	mov	r28, r25
 15e:	c2 70       	andi	r28, 0x02	; 2
 160:	91 fd       	sbrc	r25, 1
 162:	05 c0       	rjmp	.+10     	; 0x16e <receive_response+0x26>
 164:	60 d0       	rcall	.+192    	; 0x226 <ack_led>
 166:	82 b3       	in	r24, 0x12	; 18
 168:	8e 7f       	andi	r24, 0xFE	; 254
 16a:	82 bb       	out	0x12, r24	; 18
 16c:	08 c0       	rjmp	.+16     	; 0x17e <receive_response+0x36>
 16e:	8f 5f       	subi	r24, 0xFF	; 255
 170:	84 31       	cpi	r24, 0x14	; 20
 172:	98 f3       	brcs	.-26     	; 0x15a <receive_response+0x12>
 174:	5b d0       	rcall	.+182    	; 0x22c <noack_led>
 176:	82 b3       	in	r24, 0x12	; 18
 178:	8e 7f       	andi	r24, 0xFE	; 254
 17a:	82 bb       	out	0x12, r24	; 18
 17c:	c2 e0       	ldi	r28, 0x02	; 2
 17e:	8c 2f       	mov	r24, r28
 180:	cf 91       	pop	r28
 182:	08 95       	ret

00000184 <read_data>:
 184:	cf 93       	push	r28
 186:	df 93       	push	r29
 188:	81 b3       	in	r24, 0x11	; 17
 18a:	8d 7f       	andi	r24, 0xFD	; 253
 18c:	81 bb       	out	0x11, r24	; 17
 18e:	82 b3       	in	r24, 0x12	; 18
 190:	81 60       	ori	r24, 0x01	; 1
 192:	82 bb       	out	0x12, r24	; 18
 194:	c0 e0       	ldi	r28, 0x00	; 0
 196:	d0 e0       	ldi	r29, 0x00	; 0
 198:	06 c0       	rjmp	.+12     	; 0x1a6 <read_data+0x22>
 19a:	41 d0       	rcall	.+130    	; 0x21e <loading_led>
 19c:	80 b3       	in	r24, 0x10	; 16
 19e:	86 95       	lsr	r24
 1a0:	81 70       	andi	r24, 0x01	; 1
 1a2:	d8 2b       	or	r29, r24
 1a4:	cf 5f       	subi	r28, 0xFF	; 255
 1a6:	c8 30       	cpi	r28, 0x08	; 8
 1a8:	c0 f3       	brcs	.-16     	; 0x19a <read_data+0x16>
 1aa:	82 b3       	in	r24, 0x12	; 18
 1ac:	8e 7f       	andi	r24, 0xFE	; 254
 1ae:	82 bb       	out	0x12, r24	; 18
 1b0:	8d 2f       	mov	r24, r29
 1b2:	df 91       	pop	r29
 1b4:	cf 91       	pop	r28
 1b6:	08 95       	ret

000001b8 <send_response>:
 1b8:	91 b3       	in	r25, 0x11	; 17
 1ba:	92 60       	ori	r25, 0x02	; 2
 1bc:	91 bb       	out	0x11, r25	; 17
 1be:	81 11       	cpse	r24, r1
 1c0:	05 c0       	rjmp	.+10     	; 0x1cc <send_response+0x14>
 1c2:	31 d0       	rcall	.+98     	; 0x226 <ack_led>
 1c4:	82 b3       	in	r24, 0x12	; 18
 1c6:	8d 7f       	andi	r24, 0xFD	; 253
 1c8:	82 bb       	out	0x12, r24	; 18
 1ca:	06 c0       	rjmp	.+12     	; 0x1d8 <send_response+0x20>
 1cc:	82 30       	cpi	r24, 0x02	; 2
 1ce:	21 f4       	brne	.+8      	; 0x1d8 <send_response+0x20>
 1d0:	2d d0       	rcall	.+90     	; 0x22c <noack_led>
 1d2:	82 b3       	in	r24, 0x12	; 18
 1d4:	82 60       	ori	r24, 0x02	; 2
 1d6:	82 bb       	out	0x12, r24	; 18
 1d8:	82 b3       	in	r24, 0x12	; 18
 1da:	81 60       	ori	r24, 0x01	; 1
 1dc:	82 bb       	out	0x12, r24	; 18
 1de:	82 b3       	in	r24, 0x12	; 18
 1e0:	8e 7f       	andi	r24, 0xFE	; 254
 1e2:	82 bb       	out	0x12, r24	; 18
 1e4:	08 95       	ret

000001e6 <i2c_device_address_setup>:
 1e6:	80 ea       	ldi	r24, 0xA0	; 160
 1e8:	89 df       	rcall	.-238    	; 0xfc <write_data>
 1ea:	ae df       	rcall	.-164    	; 0x148 <receive_response>
 1ec:	80 93 02 01 	sts	0x0102, r24	; 0x800102 <__data_end>
 1f0:	82 30       	cpi	r24, 0x02	; 2
 1f2:	09 f4       	brne	.+2      	; 0x1f6 <i2c_device_address_setup+0x10>
 1f4:	76 cf       	rjmp	.-276    	; 0xe2 <i2c_stop>
 1f6:	08 95       	ret

000001f8 <i2c_address_setup>:
 1f8:	80 e0       	ldi	r24, 0x00	; 0
 1fa:	80 df       	rcall	.-256    	; 0xfc <write_data>
 1fc:	a5 df       	rcall	.-182    	; 0x148 <receive_response>
 1fe:	80 93 02 01 	sts	0x0102, r24	; 0x800102 <__data_end>
 202:	82 30       	cpi	r24, 0x02	; 2
 204:	09 f4       	brne	.+2      	; 0x208 <i2c_address_setup+0x10>
 206:	6d cf       	rjmp	.-294    	; 0xe2 <i2c_stop>
 208:	08 95       	ret

0000020a <i2c_byte_write>:
 20a:	8f ef       	ldi	r24, 0xFF	; 255
 20c:	77 df       	rcall	.-274    	; 0xfc <write_data>
 20e:	9c df       	rcall	.-200    	; 0x148 <receive_response>
 210:	80 93 02 01 	sts	0x0102, r24	; 0x800102 <__data_end>
 214:	08 95       	ret

00000216 <i2c_byte_read>:

void i2c_byte_read()
{
	uint8_t received_data;

	received_data = read_data();
 216:	b6 df       	rcall	.-148    	; 0x184 <read_data>
	
	send_response(NOACK);
 218:	82 e0       	ldi	r24, 0x02	; 2
 21a:	ce cf       	rjmp	.-100    	; 0x1b8 <send_response>
 21c:	08 95       	ret

0000021e <loading_led>:
	return ((pattern << 1) | (pattern >> 7));
}

void loading_led()
{
	PORTC = led;
 21e:	80 91 00 01 	lds	r24, 0x0100	; 0x800100 <__DATA_REGION_ORIGIN__>
 222:	85 bb       	out	0x15, r24	; 21
 224:	08 95       	ret

00000226 <ack_led>:
	shift_left(led);
}

void ack_led()
{
	PORTC = 0xFF;
 226:	8f ef       	ldi	r24, 0xFF	; 255
 228:	85 bb       	out	0x15, r24	; 21
 22a:	08 95       	ret

0000022c <noack_led>:
}

void noack_led()
{
	PORTC = 0x00;
 22c:	15 ba       	out	0x15, r1	; 21
 22e:	08 95       	ret

00000230 <main>:
int main(void)
{
	uint8_t device_address = 0xA0;
	uint8_t address_to_write = 0x00;
	
	CLK_OUT;
 230:	81 b3       	in	r24, 0x11	; 17
 232:	81 60       	ori	r24, 0x01	; 1
 234:	81 bb       	out	0x11, r24	; 17
	DATA_OUT;
 236:	81 b3       	in	r24, 0x11	; 17
 238:	82 60       	ori	r24, 0x02	; 2
 23a:	81 bb       	out	0x11, r24	; 17
	
	DDRC = 0xFF;
 23c:	8f ef       	ldi	r24, 0xFF	; 255
 23e:	84 bb       	out	0x14, r24	; 20
	DDRE &= 0x0F;
 240:	82 b1       	in	r24, 0x02	; 2
 242:	8f 70       	andi	r24, 0x0F	; 15
 244:	82 b9       	out	0x02, r24	; 2
const uint8_t tmp_write = 0xFF;
const uint8_t tmp_page[5] = {0xFF, 0xFE, 0xFD, 0xFC, 0xFB};

int main(void)
{
	uint8_t device_address = 0xA0;
 246:	c0 ea       	ldi	r28, 0xA0	; 160
	DDRE &= 0x0F;
	
    /* Replace with your application code */
    while (1) 
    {
		if ((PINE & 0x10) == 0x10)
 248:	0c 9b       	sbis	0x01, 4	; 1
 24a:	0a c0       	rjmp	.+20     	; 0x260 <main+0x30>
		{
			i2c_start();
 24c:	3d df       	rcall	.-390    	; 0xc8 <i2c_start>
			
			device_address &= 0xFE;		// set write
 24e:	ce 7f       	andi	r28, 0xFE	; 254
			i2c_device_address_setup(device_address);
 250:	8c 2f       	mov	r24, r28
 252:	c9 df       	rcall	.-110    	; 0x1e6 <i2c_device_address_setup>
			i2c_address_setup(address_to_write);
 254:	80 e0       	ldi	r24, 0x00	; 0
 256:	d0 df       	rcall	.-96     	; 0x1f8 <i2c_address_setup>
			
			i2c_byte_write(tmp_write);
 258:	8f ef       	ldi	r24, 0xFF	; 255
 25a:	d7 df       	rcall	.-82     	; 0x20a <i2c_byte_write>
 25c:	42 df       	rcall	.-380    	; 0xe2 <i2c_stop>
			
			i2c_stop();
 25e:	f4 cf       	rjmp	.-24     	; 0x248 <main+0x18>
 260:	91 b1       	in	r25, 0x01	; 1
		}
		else if ((PINE & 0x70) == 0x70)
 262:	90 77       	andi	r25, 0x70	; 112
 264:	90 37       	cpi	r25, 0x70	; 112
 266:	81 f7       	brne	.-32     	; 0x248 <main+0x18>
		{
			// Read something
			i2c_start();
 268:	2f df       	rcall	.-418    	; 0xc8 <i2c_start>
			
			device_address &= 0xFE;
 26a:	ce 7f       	andi	r28, 0xFE	; 254
			i2c_device_address_setup(device_address);
 26c:	8c 2f       	mov	r24, r28
 26e:	bb df       	rcall	.-138    	; 0x1e6 <i2c_device_address_setup>
			i2c_address_setup(address_to_write);
 270:	80 e0       	ldi	r24, 0x00	; 0
 272:	c2 df       	rcall	.-124    	; 0x1f8 <i2c_address_setup>
			
			i2c_start();
 274:	29 df       	rcall	.-430    	; 0xc8 <i2c_start>
 276:	c1 60       	ori	r28, 0x01	; 1
			
			device_address |= 0x01;
 278:	8c 2f       	mov	r24, r28
			i2c_device_address_setup(device_address);
 27a:	b5 df       	rcall	.-150    	; 0x1e6 <i2c_device_address_setup>
 27c:	cc df       	rcall	.-104    	; 0x216 <i2c_byte_read>
 27e:	31 df       	rcall	.-414    	; 0xe2 <i2c_stop>
			
			i2c_byte_read();
 280:	e3 cf       	rjmp	.-58     	; 0x248 <main+0x18>

00000282 <_exit>:
 282:	f8 94       	cli

00000284 <__stop_program>:
			
			i2c_stop();
 284:	ff cf       	rjmp	.-2      	; 0x284 <__stop_program>
